target datalayout = "e-m:e-p270:32:32-p271:32:32-p272:64:64-i64:64-i128:128-f80:128-n8:16:32:64-S128"
target triple = "x86_64-pc-linux-gnu"

%class.MemoryFileTracker = type { %class.NativeCallStackStorage, %class.GrowableArrayCHeap.3 }
%class.NativeCallStackStorage = type { %class.ArrayWithFreeList, i32, ptr, %class.GrowableArrayCHeap.0, i8, %class.NativeCallStack }
%class.ArrayWithFreeList = type <{ %class.GrowableArrayCHeap, i32, [4 x i8] }>
%class.GrowableArrayCHeap = type { %class.GrowableArrayWithAllocator }
%class.GrowableArrayWithAllocator = type { %class.GrowableArrayView }
%class.GrowableArrayView = type { %class.GrowableArrayBase, ptr }
%class.GrowableArrayBase = type { i32, i32 }
%class.GrowableArrayCHeap.0 = type { %class.GrowableArrayWithAllocator.1 }
%class.GrowableArrayWithAllocator.1 = type { %class.GrowableArrayView.2 }
%class.GrowableArrayView.2 = type { %class.GrowableArrayBase, ptr }
%class.NativeCallStack = type { [4 x ptr] }
%class.GrowableArrayCHeap.3 = type { %class.GrowableArrayWithAllocator.4 }
%class.GrowableArrayWithAllocator.4 = type { %class.GrowableArrayView.5 }
%class.GrowableArrayView.5 = type { %class.GrowableArrayBase, ptr }
%"class.MemoryFileTracker::MemoryFile" = type { ptr, %class.VirtualMemorySnapshot, %class.VMATree }
%class.VirtualMemorySnapshot = type { [28 x %class.VirtualMemory] }
%class.VirtualMemory = type { i64, i64, i64 }
%class.VMATree = type { %class.Treap }
%class.Treap = type <{ %class.TreapCHeapAllocator, [7 x i8], ptr, i64, i32, [4 x i8] }>
%class.TreapCHeapAllocator = type { i8 }

; Function Attrs: mustprogress nounwind uwtable
define linkonce_odr hidden void @_ZN5TreapImN7VMATree14IntervalChangeENS0_18PositionComparatorE19TreapCHeapAllocatorEC2Ev(ptr noundef nonnull align 8 dereferenceable(28) %0) unnamed_addr #1 comdat align 2 {
  %2 = alloca ptr, align 8
  store ptr %0, ptr %2, align 8
  %3 = load ptr, ptr %2, align 8
  %4 = getelementptr inbounds %class.Treap, ptr %3, i32 0, i32 2
  store ptr null, ptr %4, align 8
  %5 = getelementptr inbounds %class.Treap, ptr %3, i32 0, i32 3
  store i64 -3972982923568266333, ptr %5, align 8
  %6 = getelementptr inbounds %class.Treap, ptr %3, i32 0, i32 4
  store i32 0, ptr %6, align 8
  ret void
}

; Function Attrs: mustprogress nounwind uwtable
define linkonce_odr hidden void @_ZN13VirtualMemoryC2Ev(ptr noundef nonnull align 8 dereferenceable(24) %0) unnamed_addr #1 comdat align 2 {
  %2 = alloca ptr, align 8
  store ptr %0, ptr %2, align 8
  %3 = load ptr, ptr %2, align 8
  %4 = getelementptr inbounds %class.VirtualMemory, ptr %3, i32 0, i32 0
  store i64 0, ptr %4, align 8
  %5 = getelementptr inbounds %class.VirtualMemory, ptr %3, i32 0, i32 1
  store i64 0, ptr %5, align 8
  %6 = getelementptr inbounds %class.VirtualMemory, ptr %3, i32 0, i32 2
  store volatile i64 0, ptr %6, align 8
  ret void
}

; Function Attrs: mustprogress nounwind uwtable
define linkonce_odr hidden void @_ZN7VMATreeC2Ev(ptr noundef nonnull align 8 dereferenceable(32) %0) unnamed_addr #1 comdat align 2 {
  %2 = alloca ptr, align 8
  store ptr %0, ptr %2, align 8
  %3 = load ptr, ptr %2, align 8
  %4 = getelementptr inbounds %class.VMATree, ptr %3, i32 0, i32 0
  call void @_ZN5TreapImN7VMATree14IntervalChangeENS0_18PositionComparatorE19TreapCHeapAllocatorEC2Ev(ptr noundef nonnull align 8 dereferenceable(28) %4)
  ret void
}

; Function Attrs: mustprogress nounwind uwtable
define linkonce_odr hidden void @_ZN21VirtualMemorySnapshotC2Ev(ptr noundef nonnull align 8 dereferenceable(672) %0) unnamed_addr #1 comdat align 2 {
  %2 = alloca ptr, align 8
  store ptr %0, ptr %2, align 8
  %3 = load ptr, ptr %2, align 8
  %4 = getelementptr inbounds %class.VirtualMemorySnapshot, ptr %3, i32 0, i32 0
  %5 = getelementptr inbounds [28 x %class.VirtualMemory], ptr %4, i32 0, i32 0
  %6 = getelementptr inbounds %class.VirtualMemory, ptr %5, i64 28
  br label %7

7:                                                ; preds = %7, %1
  %8 = phi ptr [ %5, %1 ], [ %9, %7 ]
  call void @_ZN13VirtualMemoryC2Ev(ptr noundef nonnull align 8 dereferenceable(24) %8)
  %9 = getelementptr inbounds %class.VirtualMemory, ptr %8, i64 1
  %10 = icmp eq ptr %9, %6
  br i1 %10, label %11, label %7

11:                                               ; preds = %7
  ret void
}

; Function Attrs: mustprogress nounwind uwtable
define linkonce_odr hidden void @_ZN26GrowableArrayWithAllocatorIPN17MemoryFileTracker10MemoryFileE18GrowableArrayCHeapIS2_L8MEMFLAGS12EEE4pushERKS2_(ptr noundef nonnull align 8 dereferenceable(16) %0, ptr noundef nonnull align 8 dereferenceable(8) %1) #1 comdat align 2 {
  %3 = alloca ptr, align 8
  %4 = alloca ptr, align 8
  store ptr %0, ptr %3, align 8
  store ptr %1, ptr %4, align 8
  %5 = load ptr, ptr %3, align 8
  %6 = load ptr, ptr %4, align 8
  %7 = call noundef i32 @_ZN26GrowableArrayWithAllocatorIPN17MemoryFileTracker10MemoryFileE18GrowableArrayCHeapIS2_L8MEMFLAGS12EEE6appendERKS2_(ptr noundef nonnull align 8 dereferenceable(16) %5, ptr noundef nonnull align 8 dereferenceable(8) %6)
  ret void
}

; Function Attrs: mustprogress nounwind uwtable
define linkonce_odr hidden void @_ZN17MemoryFileTracker10MemoryFileC2EPKc(ptr noundef nonnull align 8 dereferenceable(712) %0, ptr noundef %1) unnamed_addr #1 comdat align 2 {
  %3 = alloca ptr, align 8
  %4 = alloca ptr, align 8
  store ptr %0, ptr %3, align 8
  store ptr %1, ptr %4, align 8
  %5 = load ptr, ptr %3, align 8
  %6 = getelementptr inbounds %"class.MemoryFileTracker::MemoryFile", ptr %5, i32 0, i32 0
  %7 = load ptr, ptr %4, align 8
  store ptr %7, ptr %6, align 8
  %8 = getelementptr inbounds %"class.MemoryFileTracker::MemoryFile", ptr %5, i32 0, i32 1
  call void @_ZN21VirtualMemorySnapshotC2Ev(ptr noundef nonnull align 8 dereferenceable(672) %8)
  %9 = getelementptr inbounds %"class.MemoryFileTracker::MemoryFile", ptr %5, i32 0, i32 2
  call void @_ZN7VMATreeC2Ev(ptr noundef nonnull align 8 dereferenceable(32) %9)
  ret void
}

; Function Attrs: mustprogress nounwind uwtable
define hidden noundef ptr @_ZN17MemoryFileTracker9make_fileEPKc(ptr noundef nonnull align 8 dereferenceable(112) %0, ptr noundef %1) #1 align 2 {
  %3 = alloca i64, align 8
  %4 = alloca i8, align 1
  %5 = alloca i64, align 8
  %6 = alloca ptr, align 8
  %7 = alloca ptr, align 8
  %8 = alloca ptr, align 8
  store ptr %0, ptr %6, align 8
  store ptr %1, ptr %7, align 8
  %9 = load ptr, ptr %6, align 8
  store i64 712, ptr %5, align 8
  %10 = load i64, ptr %5, align 8
  store i64 %10, ptr %3, align 8
  store i8 12, ptr %4, align 1
  %11 = load i64, ptr %3, align 8
  %12 = load i8, ptr %4, align 1
  %13 = call noundef ptr @_Z12AllocateHeapm8MEMFLAGSN17AllocFailStrategy13AllocFailEnumE(i64 noundef %11, i8 noundef zeroext %12, i32 noundef 0) #7
  %14 = load ptr, ptr %7, align 8
  call void @_ZN17MemoryFileTracker10MemoryFileC2EPKc(ptr noundef nonnull align 8 dereferenceable(712) %13, ptr noundef %14)
  store ptr %13, ptr %8, align 8
  %15 = getelementptr inbounds %class.MemoryFileTracker, ptr %9, i32 0, i32 1
  call void @_ZN26GrowableArrayWithAllocatorIPN17MemoryFileTracker10MemoryFileE18GrowableArrayCHeapIS2_L8MEMFLAGS12EEE4pushERKS2_(ptr noundef nonnull align 8 dereferenceable(16) %15, ptr noundef nonnull align 8 dereferenceable(8) %8)
  %16 = load ptr, ptr %8, align 8
  ret ptr %16
}