; Function Attrs: mustprogress nounwind uwtable
define hidden noundef ptr @_ZN17MemoryFileTracker9make_fileEPKc(ptr noundef nonnull align 8 dereferenceable(112) %0, ptr noundef %1) local_unnamed_addr #0 align 2 {
  %3 = alloca ptr, align 8
  %4 = tail call noundef ptr @_Z12AllocateHeapm8MEMFLAGSN17AllocFailStrategy13AllocFailEnumE(i64 noundef 712, i8 noundef zeroext 12, i32 noundef 0) #10
  store ptr %1, ptr %4, align 8
  %5 = getelementptr inbounds i8, ptr %4, i64 8
  br label %6

6:                                                ; preds = %6, %2
  %.idx.i.i = phi i64 [ 0, %2 ], [ %.add.i.i, %6 ]
  %.ptr.i.i = getelementptr inbounds i8, ptr %5, i64 %.idx.i.i
  %7 = getelementptr inbounds i8, ptr %.ptr.i.i, i64 16
  tail call void @llvm.memset.p0.i64(ptr noundef nonnull align 8 dereferenceable(16) %.ptr.i.i, i8 0, i64 16, i1 false)
  store volatile i64 0, ptr %7, align 8
  %.add.i.i = add nuw nsw i64 %.idx.i.i, 24
  %8 = icmp eq i64 %.add.i.i, 672
  br i1 %8, label %_ZN17MemoryFileTracker10MemoryFileC2EPKc.exit, label %6

_ZN17MemoryFileTracker10MemoryFileC2EPKc.exit:    ; preds = %6
  %9 = getelementptr inbounds i8, ptr %4, i64 688
  store ptr null, ptr %9, align 8
  %10 = getelementptr inbounds i8, ptr %4, i64 696
  store i64 -3972982923568266333, ptr %10, align 8
  %11 = getelementptr inbounds i8, ptr %4, i64 704
  store i32 0, ptr %11, align 8
  store ptr %4, ptr %3, align 8
  %12 = getelementptr inbounds i8, ptr %0, i64 96
  %13 = call noundef i32 @_ZN26GrowableArrayWithAllocatorIPN17MemoryFileTracker10MemoryFileE18GrowableArrayCHeapIS2_L8MEMFLAGS12EEE6appendERKS2_(ptr noundef nonnull align 8 dereferenceable(16) %12, ptr noundef nonnull align 8 dereferenceable(8) %3)
  %14 = load ptr, ptr %3, align 8
  ret ptr %14
}